target datalayout = "e-m:e-p270:32:32-p271:32:32-p272:64:64-i64:64-i128:128-f80:128-n8:16:32:64-S128"
target triple = "x86_64-pc-linux-gnu"

%struct.UnifiedOopRef = type { i64 }
%class.StoredEdge = type { %class.Edge, i64, i64 }
%class.Edge = type { ptr, %struct.UnifiedOopRef }

; Function Attrs: mustprogress nounwind uwtable
define linkonce_odr hidden noundef ptr @_ZNK4Edge6parentEv(ptr noundef nonnull align 8 dereferenceable(16) %0) #1 comdat align 2 {
  %2 = alloca ptr, align 8
  store ptr %0, ptr %2, align 8
  %3 = load ptr, ptr %2, align 8
  %4 = getelementptr inbounds %class.Edge, ptr %3, i32 0, i32 0
  %5 = load ptr, ptr %4, align 8
  ret ptr %5
}

; Function Attrs: mustprogress nounwind uwtable
define linkonce_odr hidden noundef zeroext i1 @_ZNK10StoredEdge12is_skip_edgeEv(ptr noundef nonnull align 8 dereferenceable(32) %0) #1 comdat align 2 {
  %2 = alloca ptr, align 8
  store ptr %0, ptr %2, align 8
  %3 = load ptr, ptr %2, align 8
  %4 = getelementptr inbounds %class.StoredEdge, ptr %3, i32 0, i32 2
  %5 = load i64, ptr %4, align 8
  %6 = icmp ne i64 %5, 0
  ret i1 %6
}

; Function Attrs: mustprogress nounwind uwtable
define linkonce_odr hidden void @_ZN10StoredEdge10set_parentEPK4Edge(ptr noundef nonnull align 8 dereferenceable(32) %0, ptr noundef %1) #1 comdat align 2 {
  %3 = alloca ptr, align 8
  %4 = alloca ptr, align 8
  store ptr %0, ptr %3, align 8
  store ptr %1, ptr %4, align 8
  %5 = load ptr, ptr %3, align 8
  %6 = load ptr, ptr %4, align 8
  %7 = getelementptr inbounds %class.Edge, ptr %5, i32 0, i32 0
  store ptr %6, ptr %7, align 8
  ret void
}

; Function Attrs: mustprogress nounwind uwtable
define linkonce_odr hidden noundef ptr @_ZNK10StoredEdge6parentEv(ptr noundef nonnull align 8 dereferenceable(32) %0) #1 comdat align 2 {
  %2 = alloca ptr, align 8
  store ptr %0, ptr %2, align 8
  %3 = load ptr, ptr %2, align 8
  %4 = call noundef ptr @_ZNK4Edge6parentEv(ptr noundef nonnull align 8 dereferenceable(16) %3)
  ret ptr %4
}

; Function Attrs: mustprogress nounwind uwtable
define linkonce_odr hidden void @_ZN10StoredEdge15set_skip_lengthEm(ptr noundef nonnull align 8 dereferenceable(32) %0, i64 noundef %1) #1 comdat align 2 {
  %3 = alloca ptr, align 8
  %4 = alloca i64, align 8
  store ptr %0, ptr %3, align 8
  store i64 %1, ptr %4, align 8
  %5 = load ptr, ptr %3, align 8
  %6 = load i64, ptr %4, align 8
  %7 = getelementptr inbounds %class.StoredEdge, ptr %5, i32 0, i32 2
  store i64 %6, ptr %7, align 8
  ret void
}

; Function Attrs: mustprogress nounwind uwtable
define linkonce_odr hidden noundef i64 @_ZNK10StoredEdge11skip_lengthEv(ptr noundef nonnull align 8 dereferenceable(32) %0) #1 comdat align 2 {
  %2 = alloca ptr, align 8
  store ptr %0, ptr %2, align 8
  %3 = load ptr, ptr %2, align 8
  %4 = getelementptr inbounds %class.StoredEdge, ptr %3, i32 0, i32 2
  %5 = load i64, ptr %4, align 8
  ret i64 %5
}

; Function Attrs: mustprogress nounwind uwtable
define internal void @_ZL9link_edgePK10StoredEdgePPS_(ptr noundef %0, ptr noundef %1) #1 {
  %3 = alloca ptr, align 8
  %4 = alloca ptr, align 8
  store ptr %0, ptr %3, align 8
  store ptr %1, ptr %4, align 8
  %5 = load ptr, ptr %4, align 8
  %6 = load ptr, ptr %5, align 8
  %7 = load ptr, ptr %3, align 8
  call void @_ZN10StoredEdge10set_parentEPK4Edge(ptr noundef nonnull align 8 dereferenceable(32) %6, ptr noundef %7)
  ret void
}

; Function Attrs: mustprogress nounwind uwtable
define internal noundef ptr @_ZL22find_closest_skip_edgePK10StoredEdgePm(ptr noundef %0, ptr noundef %1) #1 {
  %3 = alloca ptr, align 8
  %4 = alloca ptr, align 8
  %5 = alloca ptr, align 8
  store ptr %0, ptr %3, align 8
  store ptr %1, ptr %4, align 8
  %6 = load ptr, ptr %3, align 8
  store ptr %6, ptr %5, align 8
  %7 = load ptr, ptr %4, align 8
  store i64 1, ptr %7, align 8
  br label %8

8:                                                ; preds = %17, %2
  %9 = load ptr, ptr %5, align 8
  %10 = icmp ne ptr %9, null
  br i1 %10, label %11, label %15

11:                                               ; preds = %8
  %12 = load ptr, ptr %5, align 8
  %13 = call noundef zeroext i1 @_ZNK10StoredEdge12is_skip_edgeEv(ptr noundef nonnull align 8 dereferenceable(32) %12)
  %14 = xor i1 %13, true
  br label %15

15:                                               ; preds = %11, %8
  %16 = phi i1 [ false, %8 ], [ %14, %11 ]
  br i1 %16, label %17, label %23

17:                                               ; preds = %15
  %18 = load ptr, ptr %4, align 8
  %19 = load i64, ptr %18, align 8
  %20 = add i64 %19, 1
  store i64 %20, ptr %18, align 8
  %21 = load ptr, ptr %5, align 8
  %22 = call noundef ptr @_ZNK10StoredEdge6parentEv(ptr noundef nonnull align 8 dereferenceable(32) %21)
  store ptr %22, ptr %5, align 8
  br label %8, !llvm.loop !8

23:                                               ; preds = %15
  %24 = load ptr, ptr %5, align 8
  ret ptr %24
}

; Function Attrs: mustprogress nounwind uwtable
define hidden void @_ZN9EdgeStore24link_with_existing_chainEPK10StoredEdgePPS0_m(ptr noundef nonnull align 8 dereferenceable(8) %0, ptr noundef %1, ptr noundef %2, i64 noundef %3) #1 align 2 {
  %5 = alloca ptr, align 8
  %6 = alloca ptr, align 8
  %7 = alloca ptr, align 8
  %8 = alloca i64, align 8
  %9 = alloca i64, align 8
  %10 = alloca ptr, align 8
  store ptr %0, ptr %5, align 8
  store ptr %1, ptr %6, align 8
  store ptr %2, ptr %7, align 8
  store i64 %3, ptr %8, align 8
  %11 = load ptr, ptr %5, align 8
  %12 = load ptr, ptr %6, align 8
  %13 = call noundef ptr @_ZL22find_closest_skip_edgePK10StoredEdgePm(ptr noundef %12, ptr noundef %9)
  store ptr %13, ptr %10, align 8
  %14 = load ptr, ptr %10, align 8
  %15 = icmp eq ptr %14, null
  br i1 %15, label %16, label %29

16:                                               ; preds = %4
  %17 = load i64, ptr %9, align 8
  %18 = load i64, ptr %8, align 8
  %19 = add i64 %17, %18
  %20 = icmp ule i64 %19, 200
  br i1 %20, label %21, label %24

21:                                               ; preds = %16
  %22 = load ptr, ptr %6, align 8
  %23 = load ptr, ptr %7, align 8
  call void @_ZL9link_edgePK10StoredEdgePPS_(ptr noundef %22, ptr noundef %23)
  br label %48

24:                                               ; preds = %16
  %25 = load ptr, ptr %7, align 8
  %26 = load i64, ptr %9, align 8
  %27 = sub i64 %26, 2
  %28 = call noundef zeroext i1 @_ZN9EdgeStore13put_skip_edgeEPP10StoredEdgePPK4Edgem(ptr noundef nonnull align 8 dereferenceable(8) %11, ptr noundef %25, ptr noundef %6, i64 noundef %27)
  br label %48

29:                                               ; preds = %4
  %30 = load i64, ptr %9, align 8
  %31 = load i64, ptr %8, align 8
  %32 = add i64 %30, %31
  %33 = icmp ule i64 %32, 100
  br i1 %33, label %34, label %37

34:                                               ; preds = %29
  %35 = load ptr, ptr %6, align 8
  %36 = load ptr, ptr %7, align 8
  call void @_ZL9link_edgePK10StoredEdgePPS_(ptr noundef %35, ptr noundef %36)
  br label %48

37:                                               ; preds = %29
  %38 = load ptr, ptr %7, align 8
  %39 = load ptr, ptr %38, align 8
  %40 = load i64, ptr %9, align 8
  %41 = load ptr, ptr %10, align 8
  %42 = call noundef i64 @_ZNK10StoredEdge11skip_lengthEv(ptr noundef nonnull align 8 dereferenceable(32) %41)
  %43 = add i64 %40, %42
  call void @_ZN10StoredEdge15set_skip_lengthEm(ptr noundef nonnull align 8 dereferenceable(32) %39, i64 noundef %43)
  %44 = load ptr, ptr %7, align 8
  %45 = load ptr, ptr %44, align 8
  %46 = load ptr, ptr %10, align 8
  %47 = call noundef ptr @_ZNK10StoredEdge6parentEv(ptr noundef nonnull align 8 dereferenceable(32) %46)
  call void @_ZN10StoredEdge10set_parentEPK4Edge(ptr noundef nonnull align 8 dereferenceable(32) %45, ptr noundef %47)
  br label %48

48:                                               ; preds = %37, %34, %24, %21
  ret void
}