; Function Attrs: mustprogress nounwind uwtable
define hidden void @_ZN9EdgeStore24link_with_existing_chainEPK10StoredEdgePPS0_m(ptr nocapture noundef nonnull readonly align 8 dereferenceable(8) %0, ptr noundef %1, ptr nocapture noundef %2, i64 noundef %3) local_unnamed_addr #0 align 2 {
  %5 = alloca ptr, align 8
  store ptr %1, ptr %5, align 8
  %.not8.i = icmp eq ptr %1, null
  br i1 %.not8.i, label %.loopexit, label %.lr.ph.i

.lr.ph.i:                                         ; preds = %4, %8
  %.0 = phi i64 [ %9, %8 ], [ 1, %4 ]
  %.09.i = phi ptr [ %10, %8 ], [ %1, %4 ]
  %6 = getelementptr inbounds i8, ptr %.09.i, i64 24
  %7 = load i64, ptr %6, align 8
  %.not7.i = icmp eq i64 %7, 0
  br i1 %.not7.i, label %8, label %_ZL22find_closest_skip_edgePK10StoredEdgePm.exit

8:                                                ; preds = %.lr.ph.i
  %9 = add i64 %.0, 1
  %10 = load ptr, ptr %.09.i, align 8
  %.not.i = icmp eq ptr %10, null
  br i1 %.not.i, label %.loopexit, label %.lr.ph.i, !llvm.loop !10

.loopexit:                                        ; preds = %8, %4
  %.1.ph = phi i64 [ 1, %4 ], [ %9, %8 ]
  %11 = add i64 %.1.ph, %3
  %12 = icmp ult i64 %11, 201
  br i1 %12, label %13, label %14

13:                                               ; preds = %.loopexit
  %.val = load ptr, ptr %2, align 8
  store ptr %1, ptr %.val, align 8
  br label %25

14:                                               ; preds = %.loopexit
  %15 = add i64 %.1.ph, -2
  %16 = call noundef zeroext i1 @_ZN9EdgeStore13put_skip_edgeEPP10StoredEdgePPK4Edgem(ptr noundef nonnull align 8 dereferenceable(8) %0, ptr noundef %2, ptr noundef nonnull %5, i64 noundef %15)
  br label %25

_ZL22find_closest_skip_edgePK10StoredEdgePm.exit: ; preds = %.lr.ph.i
  %17 = add i64 %.0, %3
  %18 = icmp ult i64 %17, 101
  %.val10 = load ptr, ptr %2, align 8
  br i1 %18, label %19, label %20

19:                                               ; preds = %_ZL22find_closest_skip_edgePK10StoredEdgePm.exit
  store ptr %1, ptr %.val10, align 8
  br label %25

20:                                               ; preds = %_ZL22find_closest_skip_edgePK10StoredEdgePm.exit
  %21 = add i64 %7, %.0
  %22 = getelementptr inbounds i8, ptr %.val10, i64 24
  store i64 %21, ptr %22, align 8
  %23 = load ptr, ptr %2, align 8
  %24 = load ptr, ptr %.09.i, align 8
  store ptr %24, ptr %23, align 8
  br label %25

25:                                               ; preds = %20, %19, %14, %13
  ret void
}